; ModuleID = 'source-C-CXX/19/1190.c'
source_filename = "source-C-CXX/19/1190.c"
target datalayout = "e-m:e-p270:32:32-p271:32:32-p272:64:64-i64:64-f80:128-n8:16:32:64-S128"
target triple = "x86_64-pc-linux-gnu"

@.str = private unnamed_addr constant [6 x i8] c"%s %s\00", align 1

; Function Attrs: nofree nounwind sspstrong uwtable
define dso_local void @main() local_unnamed_addr #0 {
  %1 = alloca [14 x i8], align 1
  %2 = alloca [4 x i8], align 1
  %3 = getelementptr inbounds [14 x i8], [14 x i8]* %1, i64 0, i64 0
  call void @llvm.lifetime.start.p0i8(i64 14, i8* nonnull %3) #4
  %4 = getelementptr inbounds [4 x i8], [4 x i8]* %2, i64 0, i64 0
  call void @llvm.lifetime.start.p0i8(i64 4, i8* nonnull %4) #4
  %5 = call i32 (i8*, ...) @__isoc99_scanf(i8* getelementptr inbounds ([6 x i8], [6 x i8]* @.str, i64 0, i64 0), i8* nonnull %3, i8* nonnull %4)
  %6 = icmp eq i32 %5, -1
  br i1 %6, label %139, label %7

7:                                                ; preds = %0
  %8 = getelementptr inbounds [4 x i8], [4 x i8]* %2, i64 0, i64 1
  %9 = getelementptr inbounds [4 x i8], [4 x i8]* %2, i64 0, i64 2
  br label %10

10:                                               ; preds = %7, %101
  %11 = phi i32 [ %43, %101 ], [ undef, %7 ]
  %12 = call i64 @strlen(i8* noundef nonnull %3) #5
  %13 = trunc i64 %12 to i32
  %14 = icmp sgt i32 %13, 0
  br i1 %14, label %15, label %42

15:                                               ; preds = %10
  %16 = and i64 %12, 4294967295
  %17 = add nsw i64 %16, -1
  %18 = and i64 %12, 3
  %19 = icmp ult i64 %17, 3
  br i1 %19, label %22, label %20

20:                                               ; preds = %15
  %21 = sub nsw i64 %16, %18
  br label %66

22:                                               ; preds = %66, %15
  %23 = phi i32 [ undef, %15 ], [ %97, %66 ]
  %24 = phi i64 [ 0, %15 ], [ %98, %66 ]
  %25 = phi i32 [ %11, %15 ], [ %97, %66 ]
  %26 = phi i8 [ 0, %15 ], [ %95, %66 ]
  %27 = icmp eq i64 %18, 0
  br i1 %27, label %42, label %28

28:                                               ; preds = %22, %28
  %29 = phi i64 [ %39, %28 ], [ %24, %22 ]
  %30 = phi i32 [ %38, %28 ], [ %25, %22 ]
  %31 = phi i8 [ %36, %28 ], [ %26, %22 ]
  %32 = phi i64 [ %40, %28 ], [ %18, %22 ]
  %33 = getelementptr inbounds [14 x i8], [14 x i8]* %1, i64 0, i64 %29
  %34 = load i8, i8* %33, align 1, !tbaa !5
  %35 = icmp sgt i8 %34, %31
  %36 = select i1 %35, i8 %34, i8 %31
  %37 = trunc i64 %29 to i32
  %38 = select i1 %35, i32 %37, i32 %30
  %39 = add nuw nsw i64 %29, 1
  %40 = add i64 %32, -1
  %41 = icmp eq i64 %40, 0
  br i1 %41, label %42, label %28, !llvm.loop !8

42:                                               ; preds = %22, %28, %10
  %43 = phi i32 [ %11, %10 ], [ %23, %22 ], [ %38, %28 ]
  %44 = add i32 %13, -1
  %45 = icmp sgt i32 %44, %43
  br i1 %45, label %46, label %101

46:                                               ; preds = %42
  %47 = sext i32 %44 to i64
  %48 = sext i32 %43 to i64
  %49 = sub nsw i64 %47, %48
  %50 = xor i64 %48, -1
  %51 = and i64 %49, 1
  %52 = icmp eq i64 %51, 0
  br i1 %52, label %61, label %53

53:                                               ; preds = %46
  %54 = getelementptr inbounds [14 x i8], [14 x i8]* %1, i64 0, i64 %47
  %55 = load i8, i8* %54, align 1, !tbaa !5
  %56 = shl i64 %12, 32
  %57 = add i64 %56, 8589934592
  %58 = ashr exact i64 %57, 32
  %59 = getelementptr inbounds [14 x i8], [14 x i8]* %1, i64 0, i64 %58
  store i8 %55, i8* %59, align 1, !tbaa !5
  %60 = add nsw i64 %47, -1
  br label %61

61:                                               ; preds = %53, %46
  %62 = phi i64 [ %60, %53 ], [ %47, %46 ]
  %63 = phi i64 [ %47, %53 ], [ %12, %46 ]
  %64 = sub nsw i64 0, %47
  %65 = icmp eq i64 %50, %64
  br i1 %65, label %101, label %121

66:                                               ; preds = %66, %20
  %67 = phi i64 [ 0, %20 ], [ %98, %66 ]
  %68 = phi i32 [ %11, %20 ], [ %97, %66 ]
  %69 = phi i8 [ 0, %20 ], [ %95, %66 ]
  %70 = phi i64 [ %21, %20 ], [ %99, %66 ]
  %71 = getelementptr inbounds [14 x i8], [14 x i8]* %1, i64 0, i64 %67
  %72 = load i8, i8* %71, align 1, !tbaa !5
  %73 = icmp sgt i8 %72, %69
  %74 = select i1 %73, i8 %72, i8 %69
  %75 = trunc i64 %67 to i32
  %76 = select i1 %73, i32 %75, i32 %68
  %77 = or i64 %67, 1
  %78 = getelementptr inbounds [14 x i8], [14 x i8]* %1, i64 0, i64 %77
  %79 = load i8, i8* %78, align 1, !tbaa !5
  %80 = icmp sgt i8 %79, %74
  %81 = select i1 %80, i8 %79, i8 %74
  %82 = trunc i64 %77 to i32
  %83 = select i1 %80, i32 %82, i32 %76
  %84 = or i64 %67, 2
  %85 = getelementptr inbounds [14 x i8], [14 x i8]* %1, i64 0, i64 %84
  %86 = load i8, i8* %85, align 1, !tbaa !5
  %87 = icmp sgt i8 %86, %81
  %88 = select i1 %87, i8 %86, i8 %81
  %89 = trunc i64 %84 to i32
  %90 = select i1 %87, i32 %89, i32 %83
  %91 = or i64 %67, 3
  %92 = getelementptr inbounds [14 x i8], [14 x i8]* %1, i64 0, i64 %91
  %93 = load i8, i8* %92, align 1, !tbaa !5
  %94 = icmp sgt i8 %93, %88
  %95 = select i1 %94, i8 %93, i8 %88
  %96 = trunc i64 %91 to i32
  %97 = select i1 %94, i32 %96, i32 %90
  %98 = add nuw nsw i64 %67, 4
  %99 = add i64 %70, -4
  %100 = icmp eq i64 %99, 0
  br i1 %100, label %22, label %66, !llvm.loop !10

101:                                              ; preds = %61, %121, %42
  %102 = load i8, i8* %4, align 1, !tbaa !5
  %103 = add i32 %43, 1
  %104 = sext i32 %103 to i64
  %105 = getelementptr inbounds [14 x i8], [14 x i8]* %1, i64 0, i64 %104
  store i8 %102, i8* %105, align 1, !tbaa !5
  %106 = load i8, i8* %8, align 1, !tbaa !5
  %107 = add i32 %43, 2
  %108 = sext i32 %107 to i64
  %109 = getelementptr inbounds [14 x i8], [14 x i8]* %1, i64 0, i64 %108
  store i8 %106, i8* %109, align 1, !tbaa !5
  %110 = load i8, i8* %9, align 1, !tbaa !5
  %111 = add i32 %43, 3
  %112 = sext i32 %111 to i64
  %113 = getelementptr inbounds [14 x i8], [14 x i8]* %1, i64 0, i64 %112
  store i8 %110, i8* %113, align 1, !tbaa !5
  %114 = shl i64 %12, 32
  %115 = add i64 %114, 12884901888
  %116 = ashr exact i64 %115, 32
  %117 = getelementptr inbounds [14 x i8], [14 x i8]* %1, i64 0, i64 %116
  store i8 0, i8* %117, align 1, !tbaa !5
  %118 = call i32 @puts(i8* nonnull %3)
  %119 = call i32 (i8*, ...) @__isoc99_scanf(i8* getelementptr inbounds ([6 x i8], [6 x i8]* @.str, i64 0, i64 0), i8* nonnull %3, i8* nonnull %4)
  %120 = icmp eq i32 %119, -1
  br i1 %120, label %139, label %10, !llvm.loop !12

121:                                              ; preds = %61, %121
  %122 = phi i64 [ %137, %121 ], [ %62, %61 ]
  %123 = phi i64 [ %130, %121 ], [ %63, %61 ]
  %124 = getelementptr inbounds [14 x i8], [14 x i8]* %1, i64 0, i64 %122
  %125 = load i8, i8* %124, align 1, !tbaa !5
  %126 = shl i64 %123, 32
  %127 = add i64 %126, 8589934592
  %128 = ashr exact i64 %127, 32
  %129 = getelementptr inbounds [14 x i8], [14 x i8]* %1, i64 0, i64 %128
  store i8 %125, i8* %129, align 1, !tbaa !5
  %130 = add nsw i64 %122, -1
  %131 = getelementptr inbounds [14 x i8], [14 x i8]* %1, i64 0, i64 %130
  %132 = load i8, i8* %131, align 1, !tbaa !5
  %133 = shl i64 %122, 32
  %134 = add i64 %133, 8589934592
  %135 = ashr exact i64 %134, 32
  %136 = getelementptr inbounds [14 x i8], [14 x i8]* %1, i64 0, i64 %135
  store i8 %132, i8* %136, align 1, !tbaa !5
  %137 = add nsw i64 %122, -2
  %138 = icmp sgt i64 %137, %48
  br i1 %138, label %121, label %101, !llvm.loop !13

139:                                              ; preds = %101, %0
  call void @llvm.lifetime.end.p0i8(i64 4, i8* nonnull %4) #4
  call void @llvm.lifetime.end.p0i8(i64 14, i8* nonnull %3) #4
  ret void
}

; Function Attrs: argmemonly mustprogress nofree nosync nounwind willreturn
declare void @llvm.lifetime.start.p0i8(i64 immarg, i8* nocapture) #1

; Function Attrs: nofree nounwind
declare noundef i32 @__isoc99_scanf(i8* nocapture noundef readonly, ...) local_unnamed_addr #2

; Function Attrs: argmemonly mustprogress nofree nounwind readonly willreturn
declare i64 @strlen(i8* nocapture) local_unnamed_addr #3

; Function Attrs: nofree nounwind
declare noundef i32 @puts(i8* nocapture noundef readonly) local_unnamed_addr #2

; Function Attrs: argmemonly mustprogress nofree nosync nounwind willreturn
declare void @llvm.lifetime.end.p0i8(i64 immarg, i8* nocapture) #1


!llvm.module.flags = !{!0, !1, !2, !3}
!llvm.ident = !{!4}

!0 = !{i32 1, !"wchar_size", i32 4}
!1 = !{i32 7, !"PIC Level", i32 2}
!2 = !{i32 7, !"PIE Level", i32 2}
!3 = !{i32 7, !"uwtable", i32 1}
!4 = !{!"clang version 13.0.0"}
!5 = !{!6, !6, i64 0}
!6 = !{!"omnipotent char", !7, i64 0}
!7 = !{!"Simple C/C++ TBAA"}
!8 = distinct !{!8, !9}
!9 = !{!"llvm.loop.unroll.disable"}
!10 = distinct !{!10, !11}
!11 = !{!"llvm.loop.mustprogress"}
!12 = distinct !{!12, !11}
!13 = distinct !{!13, !11}
